; Function Attrs: nounwind uwtable
define internal void @xdg_output_handle_done(ptr noundef %0, ptr readnone captures(none) %1) #0 {
  %3 = getelementptr inbounds nuw i8, ptr %0, i64 16
  %4 = load ptr, ptr %3, align 8
  %5 = load ptr, ptr @WAYLAND_wl_proxy_get_version, align 8
  %6 = tail call i32 %5(ptr noundef %4) #12
  %7 = icmp ult i32 %6, 3
  br i1 %7, label %8, label %9

8:                                                ; preds = %2
  tail call void @display_handle_done(ptr noundef nonnull %0, ptr poison)
  br label %9

9:                                                ; preds = %8, %2
  ret void
}